target datalayout = "e-m:e-p270:32:32-p271:32:32-p272:64:64-i64:64-i128:128-f80:128-n8:16:32:64-S128"
target triple = "x86_64-pc-linux-gnu"

%struct.anon.77 = type { i8 }
%struct.hb_vector_size_t = type { [8 x i64] }

@_ZL13hb_bitwise_or = internal constant %struct.anon.77 zeroinitializer, align 1

; Function Attrs: mustprogress nounwind uwtable
define internal noundef i64 @"_ZNK4$_14clIyEEDTorfp_fp0_ERKT_S4_"(ptr noundef nonnull align 1 dereferenceable(1) %0, ptr noundef nonnull align 8 dereferenceable(8) %1, ptr noundef nonnull align 8 dereferenceable(8) %2) #3 align 2 {
  %4 = alloca ptr, align 8
  %5 = alloca ptr, align 8
  %6 = alloca ptr, align 8
  store ptr %0, ptr %4, align 8
  store ptr %1, ptr %5, align 8
  store ptr %2, ptr %6, align 8
  %7 = load ptr, ptr %5, align 8
  %8 = load i64, ptr %7, align 8
  %9 = load ptr, ptr %6, align 8
  %10 = load i64, ptr %9, align 8
  %11 = or i64 %8, %10
  ret i64 %11
}

; Function Attrs: mustprogress nounwind uwtable
define internal noundef i32 @_ZL12ARRAY_LENGTHIyLj8EEjRAT0__KT_(ptr noundef nonnull align 8 dereferenceable(64) %0) #3 {
  %2 = alloca ptr, align 8
  store ptr %0, ptr %2, align 8
  ret i32 8
}

; Function Attrs: mustprogress uwtable
define internal void @"_ZNK16hb_vector_size_tIyLj64EE7processI4$_14EES0_RKT_RKS0_"(ptr dead_on_unwind noalias writable sret(%struct.hb_vector_size_t) align 8 %0, ptr noundef nonnull align 8 dereferenceable(64) %1, ptr noundef nonnull align 1 dereferenceable(1) %2, ptr noundef nonnull align 8 dereferenceable(64) %3) #0 align 2 {
  %5 = alloca ptr, align 8
  %6 = alloca ptr, align 8
  %7 = alloca ptr, align 8
  %8 = alloca i32, align 4
  store ptr %1, ptr %5, align 8
  store ptr %2, ptr %6, align 8
  store ptr %3, ptr %7, align 8
  %9 = load ptr, ptr %5, align 8
  store i32 0, ptr %8, align 4
  br label %10

10:                                               ; preds = %31, %4
  %11 = load i32, ptr %8, align 4
  %12 = getelementptr inbounds %struct.hb_vector_size_t, ptr %9, i32 0, i32 0
  %13 = call noundef i32 @_ZL12ARRAY_LENGTHIyLj8EEjRAT0__KT_(ptr noundef nonnull align 8 dereferenceable(64) %12)
  %14 = icmp ult i32 %11, %13
  br i1 %14, label %15, label %34

15:                                               ; preds = %10
  %16 = load ptr, ptr %6, align 8
  %17 = getelementptr inbounds %struct.hb_vector_size_t, ptr %9, i32 0, i32 0
  %18 = load i32, ptr %8, align 4
  %19 = zext i32 %18 to i64
  %20 = getelementptr inbounds [8 x i64], ptr %17, i64 0, i64 %19
  %21 = load ptr, ptr %7, align 8
  %22 = getelementptr inbounds %struct.hb_vector_size_t, ptr %21, i32 0, i32 0
  %23 = load i32, ptr %8, align 4
  %24 = zext i32 %23 to i64
  %25 = getelementptr inbounds [8 x i64], ptr %22, i64 0, i64 %24
  %26 = call noundef i64 @"_ZNK4$_14clIyEEDTorfp_fp0_ERKT_S4_"(ptr noundef nonnull align 1 dereferenceable(1) %16, ptr noundef nonnull align 8 dereferenceable(8) %20, ptr noundef nonnull align 8 dereferenceable(8) %25)
  %27 = getelementptr inbounds %struct.hb_vector_size_t, ptr %0, i32 0, i32 0
  %28 = load i32, ptr %8, align 4
  %29 = zext i32 %28 to i64
  %30 = getelementptr inbounds [8 x i64], ptr %27, i64 0, i64 %29
  store i64 %26, ptr %30, align 8
  br label %31

31:                                               ; preds = %15
  %32 = load i32, ptr %8, align 4
  %33 = add i32 %32, 1
  store i32 %33, ptr %8, align 4
  br label %10, !llvm.loop !51

34:                                               ; preds = %10
  ret void
}

; Function Attrs: mustprogress uwtable
define linkonce_odr hidden void @_ZNK16hb_vector_size_tIyLj64EEorERKS0_(ptr dead_on_unwind noalias writable sret(%struct.hb_vector_size_t) align 8 %0, ptr noundef nonnull align 8 dereferenceable(64) %1, ptr noundef nonnull align 8 dereferenceable(64) %2) #0 comdat align 2 {
  %4 = alloca ptr, align 8
  %5 = alloca ptr, align 8
  store ptr %1, ptr %4, align 8
  store ptr %2, ptr %5, align 8
  %6 = load ptr, ptr %4, align 8
  %7 = load ptr, ptr %5, align 8
  call void @"_ZNK16hb_vector_size_tIyLj64EE7processI4$_14EES0_RKT_RKS0_"(ptr dead_on_unwind writable sret(%struct.hb_vector_size_t) align 8 %0, ptr noundef nonnull align 8 dereferenceable(64) %6, ptr noundef nonnull align 1 dereferenceable(1) @_ZL13hb_bitwise_or, ptr noundef nonnull align 8 dereferenceable(64) %7)
  ret void
}

; Function Attrs: mustprogress uwtable
define internal void @"_ZNK4$_14clI16hb_vector_size_tIyLj64EEEEDTorfp_fp0_ERKT_S6_"(ptr dead_on_unwind noalias writable sret(%struct.hb_vector_size_t) align 8 %0, ptr noundef nonnull align 1 dereferenceable(1) %1, ptr noundef nonnull align 8 dereferenceable(64) %2, ptr noundef nonnull align 8 dereferenceable(64) %3) #0 align 2 {
  %5 = alloca ptr, align 8
  %6 = alloca ptr, align 8
  %7 = alloca ptr, align 8
  store ptr %1, ptr %5, align 8
  store ptr %2, ptr %6, align 8
  store ptr %3, ptr %7, align 8
  %8 = load ptr, ptr %6, align 8
  %9 = load ptr, ptr %7, align 8
  call void @_ZNK16hb_vector_size_tIyLj64EEorERKS0_(ptr dead_on_unwind writable sret(%struct.hb_vector_size_t) align 8 %0, ptr noundef nonnull align 8 dereferenceable(64) %8, ptr noundef nonnull align 8 dereferenceable(64) %9)
  ret void
}

; Function Attrs: mustprogress uwtable
define internal void @"_ZN12hb_bit_set_t3op_I4$_14EE16hb_vector_size_tIyLj64EERKS3_S5_"(ptr dead_on_unwind noalias writable sret(%struct.hb_vector_size_t) align 8 %0, ptr noundef nonnull align 8 dereferenceable(64) %1, ptr noundef nonnull align 8 dereferenceable(64) %2) #0 align 2 {
  %4 = alloca ptr, align 8
  %5 = alloca ptr, align 8
  %6 = alloca %struct.anon.77, align 1
  store ptr %1, ptr %4, align 8
  store ptr %2, ptr %5, align 8
  %7 = load ptr, ptr %4, align 8
  %8 = load ptr, ptr %5, align 8
  call void @"_ZNK4$_14clI16hb_vector_size_tIyLj64EEEEDTorfp_fp0_ERKT_S6_"(ptr dead_on_unwind writable sret(%struct.hb_vector_size_t) align 8 %0, ptr noundef nonnull align 1 dereferenceable(1) %6, ptr noundef nonnull align 8 dereferenceable(64) %7, ptr noundef nonnull align 8 dereferenceable(64) %8)
  ret void
}