; Function Attrs: mustprogress nofree norecurse nosync nounwind memory(argmem: readwrite, inaccessiblemem: readwrite) uwtable
define internal void @"_ZN12hb_bit_set_t3op_I4$_14EE16hb_vector_size_tIyLj64EERKS3_S5_"(ptr dead_on_unwind noalias nocapture writable writeonly sret(%struct.hb_vector_size_t) align 8 %0, ptr nocapture noundef nonnull readonly align 8 dereferenceable(64) %1, ptr nocapture noundef nonnull readonly align 8 dereferenceable(64) %2) #17 align 2 {
  tail call void @llvm.experimental.noalias.scope.decl(metadata !61)
  tail call void @llvm.experimental.noalias.scope.decl(metadata !64)
  tail call void @llvm.experimental.noalias.scope.decl(metadata !67)
  br label %4

4:                                                ; preds = %4, %3
  %indvars.iv.i.i.i = phi i64 [ 0, %3 ], [ %indvars.iv.next.i.i.i, %4 ]
  %5 = getelementptr inbounds [8 x i64], ptr %1, i64 0, i64 %indvars.iv.i.i.i
  %6 = getelementptr inbounds [8 x i64], ptr %2, i64 0, i64 %indvars.iv.i.i.i
  %.val.i.i.i = load i64, ptr %5, align 8, !noalias !70
  %.val7.i.i.i = load i64, ptr %6, align 8, !noalias !70
  %7 = or i64 %.val7.i.i.i, %.val.i.i.i
  %8 = getelementptr inbounds [8 x i64], ptr %0, i64 0, i64 %indvars.iv.i.i.i
  store i64 %7, ptr %8, align 8, !alias.scope !70
  %indvars.iv.next.i.i.i = add nuw nsw i64 %indvars.iv.i.i.i, 1
  %exitcond.not.i.i.i = icmp eq i64 %indvars.iv.next.i.i.i, 8
  br i1 %exitcond.not.i.i.i, label %"_ZNK4$_14clI16hb_vector_size_tIyLj64EEEEDTorfp_fp0_ERKT_S6_.exit", label %4, !llvm.loop !71

"_ZNK4$_14clI16hb_vector_size_tIyLj64EEEEDTorfp_fp0_ERKT_S6_.exit": ; preds = %4
  ret void
}